; Function Attrs: mustprogress uwtable
define hidden noundef zeroext i1 @_Z11pyopencv_toIN2cv7Point3_IiEEEbP7_objectRT_RK7ArgInfo(ptr noundef %0, ptr noundef nonnull align 4 dereferenceable(12) %1, ptr nocapture noundef nonnull readonly align 8 dereferenceable(12) %2) local_unnamed_addr #3 {
  %4 = alloca [3 x %"class.(anonymous namespace)::RefWrapper"], align 16
  store ptr %1, ptr %4, align 16
  %5 = getelementptr inbounds i8, ptr %4, i64 8
  %6 = getelementptr inbounds i8, ptr %1, i64 4
  store ptr %6, ptr %5, align 8
  %7 = getelementptr inbounds i8, ptr %4, i64 16
  %8 = getelementptr inbounds i8, ptr %1, i64 8
  store ptr %8, ptr %7, align 16
  %9 = call fastcc noundef zeroext i1 @_ZN12_GLOBAL__N_113parseSequenceIiLm3EEEbP7_objectRAT0__NS_10RefWrapperIT_EERK7ArgInfo(ptr noundef %0, ptr noundef nonnull align 8 dereferenceable(24) %4, ptr noundef nonnull align 8 dereferenceable(12) %2)
  ret i1 %9
}